; Function Attrs: mustprogress uwtable
define void @_ZN6casadi17Feasiblesqpmethod26set_feasiblesqpmethod_probEv(ptr noundef nonnull align 8 dereferenceable(2392) %0) local_unnamed_addr #3 align 2 {
  %2 = getelementptr inbounds i8, ptr %0, i64 2048
  %3 = tail call noundef ptr @_ZNK6casadi8SparsitycvPKxEv(ptr noundef nonnull align 8 dereferenceable(8) %2)
  %4 = getelementptr inbounds i8, ptr %0, i64 1928
  %5 = getelementptr inbounds i8, ptr %0, i64 1936
  store ptr %3, ptr %5, align 8
  %6 = getelementptr inbounds i8, ptr %0, i64 2056
  %7 = tail call noundef ptr @_ZNK6casadi8SparsitycvPKxEv(ptr noundef nonnull align 8 dereferenceable(8) %6)
  %8 = getelementptr inbounds i8, ptr %0, i64 1944
  store ptr %7, ptr %8, align 8
  %9 = getelementptr inbounds i8, ptr %0, i64 1528
  store ptr %9, ptr %4, align 8
  ret void
}